target datalayout = "e-m:e-p270:32:32-p271:32:32-p272:64:64-i64:64-i128:128-f80:128-n8:16:32:64-S128"
target triple = "x86_64-pc-linux-gnu"

%struct.mbedtls_md_context_t = type { ptr, ptr, ptr }

; Function Attrs: alwaysinline nounwind uwtable
define internal void @mbedtls_put_unaligned_uint64(ptr noundef %0, i64 noundef %1) #7 {
  %3 = alloca ptr, align 8
  %4 = alloca i64, align 8
  store ptr %0, ptr %3, align 8, !tbaa !24
  store i64 %1, ptr %4, align 8, !tbaa !12
  %5 = load ptr, ptr %3, align 8, !tbaa !24
  call void @llvm.memcpy.p0.p0.i64(ptr align 1 %5, ptr align 8 %4, i64 8, i1 false)
  ret void
}

; Function Attrs: alwaysinline nounwind uwtable
define internal i64 @mbedtls_get_unaligned_uint64(ptr noundef %0) #7 {
  %2 = alloca ptr, align 8
  %3 = alloca i64, align 8
  store ptr %0, ptr %2, align 8, !tbaa !24
  call void @llvm.lifetime.start.p0(i64 8, ptr %3) #8
  %4 = load ptr, ptr %2, align 8, !tbaa !24
  call void @llvm.memcpy.p0.p0.i64(ptr align 8 %3, ptr align 1 %4, i64 8, i1 false)
  %5 = load i64, ptr %3, align 8, !tbaa !12
  call void @llvm.lifetime.end.p0(i64 8, ptr %3) #8
  ret i64 %5
}

; Function Attrs: alwaysinline nounwind uwtable
define internal void @mbedtls_xor(ptr noundef %0, ptr noundef %1, ptr noundef %2, i64 noundef %3) #7 {
  %5 = alloca ptr, align 8
  %6 = alloca ptr, align 8
  %7 = alloca ptr, align 8
  %8 = alloca i64, align 8
  %9 = alloca i64, align 8
  %10 = alloca i64, align 8
  store ptr %0, ptr %5, align 8, !tbaa !10
  store ptr %1, ptr %6, align 8, !tbaa !10
  store ptr %2, ptr %7, align 8, !tbaa !10
  store i64 %3, ptr %8, align 8, !tbaa !12
  call void @llvm.lifetime.start.p0(i64 8, ptr %9) #8
  store i64 0, ptr %9, align 8, !tbaa !12
  br label %11

11:                                               ; preds = %30, %4
  %12 = load i64, ptr %9, align 8, !tbaa !12
  %13 = add i64 %12, 8
  %14 = load i64, ptr %8, align 8, !tbaa !12
  %15 = icmp ule i64 %13, %14
  br i1 %15, label %16, label %33

16:                                               ; preds = %11
  call void @llvm.lifetime.start.p0(i64 8, ptr %10) #8
  %17 = load ptr, ptr %6, align 8, !tbaa !10
  %18 = load i64, ptr %9, align 8, !tbaa !12
  %19 = getelementptr inbounds nuw i8, ptr %17, i64 %18
  %20 = call i64 @mbedtls_get_unaligned_uint64(ptr noundef %19)
  %21 = load ptr, ptr %7, align 8, !tbaa !10
  %22 = load i64, ptr %9, align 8, !tbaa !12
  %23 = getelementptr inbounds nuw i8, ptr %21, i64 %22
  %24 = call i64 @mbedtls_get_unaligned_uint64(ptr noundef %23)
  %25 = xor i64 %20, %24
  store i64 %25, ptr %10, align 8, !tbaa !12
  %26 = load ptr, ptr %5, align 8, !tbaa !10
  %27 = load i64, ptr %9, align 8, !tbaa !12
  %28 = getelementptr inbounds nuw i8, ptr %26, i64 %27
  %29 = load i64, ptr %10, align 8, !tbaa !12
  call void @mbedtls_put_unaligned_uint64(ptr noundef %28, i64 noundef %29)
  call void @llvm.lifetime.end.p0(i64 8, ptr %10) #8
  br label %30

30:                                               ; preds = %16
  %31 = load i64, ptr %9, align 8, !tbaa !12
  %32 = add i64 %31, 8
  store i64 %32, ptr %9, align 8, !tbaa !12
  br label %11, !llvm.loop !37

33:                                               ; preds = %11
  br label %34

34:                                               ; preds = %54, %33
  %35 = load i64, ptr %9, align 8, !tbaa !12
  %36 = load i64, ptr %8, align 8, !tbaa !12
  %37 = icmp ult i64 %35, %36
  br i1 %37, label %38, label %57

38:                                               ; preds = %34
  %39 = load ptr, ptr %6, align 8, !tbaa !10
  %40 = load i64, ptr %9, align 8, !tbaa !12
  %41 = getelementptr inbounds nuw i8, ptr %39, i64 %40
  %42 = load i8, ptr %41, align 1, !tbaa !31
  %43 = zext i8 %42 to i32
  %44 = load ptr, ptr %7, align 8, !tbaa !10
  %45 = load i64, ptr %9, align 8, !tbaa !12
  %46 = getelementptr inbounds nuw i8, ptr %44, i64 %45
  %47 = load i8, ptr %46, align 1, !tbaa !31
  %48 = zext i8 %47 to i32
  %49 = xor i32 %43, %48
  %50 = trunc i32 %49 to i8
  %51 = load ptr, ptr %5, align 8, !tbaa !10
  %52 = load i64, ptr %9, align 8, !tbaa !12
  %53 = getelementptr inbounds nuw i8, ptr %51, i64 %52
  store i8 %50, ptr %53, align 1, !tbaa !31
  br label %54

54:                                               ; preds = %38
  %55 = load i64, ptr %9, align 8, !tbaa !12
  %56 = add i64 %55, 1
  store i64 %56, ptr %9, align 8, !tbaa !12
  br label %34, !llvm.loop !38

57:                                               ; preds = %34
  call void @llvm.lifetime.end.p0(i64 8, ptr %9) #8
  ret void
}

; Function Attrs: nounwind uwtable
define internal i32 @pkcs5_pbkdf2_hmac(ptr noundef %0, ptr noundef %1, i64 noundef %2, ptr noundef %3, i64 noundef %4, i32 noundef %5, i32 noundef %6, ptr noundef %7) #0 {
  %9 = alloca i32, align 4
  %10 = alloca ptr, align 8
  %11 = alloca ptr, align 8
  %12 = alloca i64, align 8
  %13 = alloca ptr, align 8
  %14 = alloca i64, align 8
  %15 = alloca i32, align 4
  %16 = alloca i32, align 4
  %17 = alloca ptr, align 8
  %18 = alloca i32, align 4
  %19 = alloca i32, align 4
  %20 = alloca [64 x i8], align 16
  %21 = alloca [64 x i8], align 16
  %22 = alloca i8, align 1
  %23 = alloca i64, align 8
  %24 = alloca ptr, align 8
  %25 = alloca [4 x i8], align 1
  %26 = alloca i32, align 4
  store ptr %0, ptr %10, align 8, !tbaa !27
  store ptr %1, ptr %11, align 8, !tbaa !10
  store i64 %2, ptr %12, align 8, !tbaa !12
  store ptr %3, ptr %13, align 8, !tbaa !10
  store i64 %4, ptr %14, align 8, !tbaa !12
  store i32 %5, ptr %15, align 4, !tbaa !8
  store i32 %6, ptr %16, align 4, !tbaa !8
  store ptr %7, ptr %17, align 8, !tbaa !10
  call void @llvm.lifetime.start.p0(i64 4, ptr %18) #8
  store i32 -110, ptr %18, align 4, !tbaa !8
  call void @llvm.lifetime.start.p0(i64 4, ptr %19) #8
  call void @llvm.lifetime.start.p0(i64 64, ptr %20) #8
  call void @llvm.lifetime.start.p0(i64 64, ptr %21) #8
  call void @llvm.lifetime.start.p0(i64 1, ptr %22) #8
  %27 = load ptr, ptr %10, align 8, !tbaa !27
  %28 = getelementptr inbounds nuw %struct.mbedtls_md_context_t, ptr %27, i32 0, i32 0
  %29 = load ptr, ptr %28, align 8, !tbaa !29
  %30 = call zeroext i8 @mbedtls_md_get_size(ptr noundef %29)
  store i8 %30, ptr %22, align 1, !tbaa !31
  call void @llvm.lifetime.start.p0(i64 8, ptr %23) #8
  call void @llvm.lifetime.start.p0(i64 8, ptr %24) #8
  %31 = load ptr, ptr %17, align 8, !tbaa !10
  store ptr %31, ptr %24, align 8, !tbaa !10
  call void @llvm.lifetime.start.p0(i64 4, ptr %25) #8
  %32 = getelementptr inbounds [4 x i8], ptr %25, i64 0, i64 0
  call void @llvm.memset.p0.i64(ptr align 1 %32, i8 0, i64 4, i1 false)
  %33 = getelementptr inbounds [4 x i8], ptr %25, i64 0, i64 3
  store i8 1, ptr %33, align 1, !tbaa !31
  %34 = load ptr, ptr %10, align 8, !tbaa !27
  %35 = load ptr, ptr %11, align 8, !tbaa !10
  %36 = load i64, ptr %12, align 8, !tbaa !12
  %37 = call i32 @mbedtls_md_hmac_starts(ptr noundef %34, ptr noundef %35, i64 noundef %36)
  store i32 %37, ptr %18, align 4, !tbaa !8
  %38 = icmp ne i32 %37, 0
  br i1 %38, label %39, label %41

39:                                               ; preds = %8
  %40 = load i32, ptr %18, align 4, !tbaa !8
  store i32 %40, ptr %9, align 4
  store i32 1, ptr %26, align 4
  br label %152

41:                                               ; preds = %8
  br label %42

42:                                               ; preds = %146, %41
  %43 = load i32, ptr %16, align 4, !tbaa !8
  %44 = icmp ne i32 %43, 0
  br i1 %44, label %45, label %147

45:                                               ; preds = %42
  %46 = load ptr, ptr %10, align 8, !tbaa !27
  %47 = load ptr, ptr %13, align 8, !tbaa !10
  %48 = load i64, ptr %14, align 8, !tbaa !12
  %49 = call i32 @mbedtls_md_hmac_update(ptr noundef %46, ptr noundef %47, i64 noundef %48)
  store i32 %49, ptr %18, align 4, !tbaa !8
  %50 = icmp ne i32 %49, 0
  br i1 %50, label %51, label %52

51:                                               ; preds = %45
  br label %148

52:                                               ; preds = %45
  %53 = load ptr, ptr %10, align 8, !tbaa !27
  %54 = getelementptr inbounds [4 x i8], ptr %25, i64 0, i64 0
  %55 = call i32 @mbedtls_md_hmac_update(ptr noundef %53, ptr noundef %54, i64 noundef 4)
  store i32 %55, ptr %18, align 4, !tbaa !8
  %56 = icmp ne i32 %55, 0
  br i1 %56, label %57, label %58

57:                                               ; preds = %52
  br label %148

58:                                               ; preds = %52
  %59 = load ptr, ptr %10, align 8, !tbaa !27
  %60 = getelementptr inbounds [64 x i8], ptr %21, i64 0, i64 0
  %61 = call i32 @mbedtls_md_hmac_finish(ptr noundef %59, ptr noundef %60)
  store i32 %61, ptr %18, align 4, !tbaa !8
  %62 = icmp ne i32 %61, 0
  br i1 %62, label %63, label %64

63:                                               ; preds = %58
  br label %148

64:                                               ; preds = %58
  %65 = load ptr, ptr %10, align 8, !tbaa !27
  %66 = call i32 @mbedtls_md_hmac_reset(ptr noundef %65)
  store i32 %66, ptr %18, align 4, !tbaa !8
  %67 = icmp ne i32 %66, 0
  br i1 %67, label %68, label %69

68:                                               ; preds = %64
  br label %148

69:                                               ; preds = %64
  %70 = getelementptr inbounds [64 x i8], ptr %20, i64 0, i64 0
  %71 = getelementptr inbounds [64 x i8], ptr %21, i64 0, i64 0
  %72 = load i8, ptr %22, align 1, !tbaa !31
  %73 = zext i8 %72 to i64
  call void @llvm.memcpy.p0.p0.i64(ptr align 16 %70, ptr align 16 %71, i64 %73, i1 false)
  store i32 1, ptr %19, align 4, !tbaa !8
  br label %74

74:                                               ; preds = %103, %69
  %75 = load i32, ptr %19, align 4, !tbaa !8
  %76 = load i32, ptr %15, align 4, !tbaa !8
  %77 = icmp ult i32 %75, %76
  br i1 %77, label %78, label %106

78:                                               ; preds = %74
  %79 = load ptr, ptr %10, align 8, !tbaa !27
  %80 = getelementptr inbounds [64 x i8], ptr %20, i64 0, i64 0
  %81 = load i8, ptr %22, align 1, !tbaa !31
  %82 = zext i8 %81 to i64
  %83 = call i32 @mbedtls_md_hmac_update(ptr noundef %79, ptr noundef %80, i64 noundef %82)
  store i32 %83, ptr %18, align 4, !tbaa !8
  %84 = icmp ne i32 %83, 0
  br i1 %84, label %85, label %86

85:                                               ; preds = %78
  br label %148

86:                                               ; preds = %78
  %87 = load ptr, ptr %10, align 8, !tbaa !27
  %88 = getelementptr inbounds [64 x i8], ptr %20, i64 0, i64 0
  %89 = call i32 @mbedtls_md_hmac_finish(ptr noundef %87, ptr noundef %88)
  store i32 %89, ptr %18, align 4, !tbaa !8
  %90 = icmp ne i32 %89, 0
  br i1 %90, label %91, label %92

91:                                               ; preds = %86
  br label %148

92:                                               ; preds = %86
  %93 = load ptr, ptr %10, align 8, !tbaa !27
  %94 = call i32 @mbedtls_md_hmac_reset(ptr noundef %93)
  store i32 %94, ptr %18, align 4, !tbaa !8
  %95 = icmp ne i32 %94, 0
  br i1 %95, label %96, label %97

96:                                               ; preds = %92
  br label %148

97:                                               ; preds = %92
  %98 = getelementptr inbounds [64 x i8], ptr %21, i64 0, i64 0
  %99 = getelementptr inbounds [64 x i8], ptr %21, i64 0, i64 0
  %100 = getelementptr inbounds [64 x i8], ptr %20, i64 0, i64 0
  %101 = load i8, ptr %22, align 1, !tbaa !31
  %102 = zext i8 %101 to i64
  call void @mbedtls_xor(ptr noundef %98, ptr noundef %99, ptr noundef %100, i64 noundef %102)
  br label %103

103:                                              ; preds = %97
  %104 = load i32, ptr %19, align 4, !tbaa !8
  %105 = add i32 %104, 1
  store i32 %105, ptr %19, align 4, !tbaa !8
  br label %74, !llvm.loop !32

106:                                              ; preds = %74
  %107 = load i32, ptr %16, align 4, !tbaa !8
  %108 = load i8, ptr %22, align 1, !tbaa !31
  %109 = zext i8 %108 to i32
  %110 = icmp ult i32 %107, %109
  br i1 %110, label %111, label %113

111:                                              ; preds = %106
  %112 = load i32, ptr %16, align 4, !tbaa !8
  br label %116

113:                                              ; preds = %106
  %114 = load i8, ptr %22, align 1, !tbaa !31
  %115 = zext i8 %114 to i32
  br label %116

116:                                              ; preds = %113, %111
  %117 = phi i32 [ %112, %111 ], [ %115, %113 ]
  %118 = zext i32 %117 to i64
  store i64 %118, ptr %23, align 8, !tbaa !12
  %119 = load ptr, ptr %24, align 8, !tbaa !10
  %120 = getelementptr inbounds [64 x i8], ptr %21, i64 0, i64 0
  %121 = load i64, ptr %23, align 8, !tbaa !12
  call void @llvm.memcpy.p0.p0.i64(ptr align 1 %119, ptr align 16 %120, i64 %121, i1 false)
  %122 = load i64, ptr %23, align 8, !tbaa !12
  %123 = trunc i64 %122 to i32
  %124 = load i32, ptr %16, align 4, !tbaa !8
  %125 = sub i32 %124, %123
  store i32 %125, ptr %16, align 4, !tbaa !8
  %126 = load i64, ptr %23, align 8, !tbaa !12
  %127 = load ptr, ptr %24, align 8, !tbaa !10
  %128 = getelementptr inbounds nuw i8, ptr %127, i64 %126
  store ptr %128, ptr %24, align 8, !tbaa !10
  store i32 4, ptr %19, align 4, !tbaa !8
  br label %129

129:                                              ; preds = %143, %116
  %130 = load i32, ptr %19, align 4, !tbaa !8
  %131 = icmp ugt i32 %130, 0
  br i1 %131, label %132, label %146

132:                                              ; preds = %129
  %133 = load i32, ptr %19, align 4, !tbaa !8
  %134 = sub i32 %133, 1
  %135 = zext i32 %134 to i64
  %136 = getelementptr inbounds nuw [4 x i8], ptr %25, i64 0, i64 %135
  %137 = load i8, ptr %136, align 1, !tbaa !31
  %138 = add i8 %137, 1
  store i8 %138, ptr %136, align 1, !tbaa !31
  %139 = zext i8 %138 to i32
  %140 = icmp ne i32 %139, 0
  br i1 %140, label %141, label %142

141:                                              ; preds = %132
  br label %146

142:                                              ; preds = %132
  br label %143

143:                                              ; preds = %142
  %144 = load i32, ptr %19, align 4, !tbaa !8
  %145 = add i32 %144, -1
  store i32 %145, ptr %19, align 4, !tbaa !8
  br label %129, !llvm.loop !34

146:                                              ; preds = %141, %129
  br label %42, !llvm.loop !35

147:                                              ; preds = %42
  br label %148

148:                                              ; preds = %147, %96, %91, %85, %68, %63, %57, %51
  %149 = getelementptr inbounds [64 x i8], ptr %21, i64 0, i64 0
  call void @mbedtls_platform_zeroize(ptr noundef %149, i64 noundef 64)
  %150 = getelementptr inbounds [64 x i8], ptr %20, i64 0, i64 0
  call void @mbedtls_platform_zeroize(ptr noundef %150, i64 noundef 64)
  %151 = load i32, ptr %18, align 4, !tbaa !8
  store i32 %151, ptr %9, align 4
  store i32 1, ptr %26, align 4
  br label %152

152:                                              ; preds = %148, %39
  call void @llvm.lifetime.end.p0(i64 4, ptr %25) #8
  call void @llvm.lifetime.end.p0(i64 8, ptr %24) #8
  call void @llvm.lifetime.end.p0(i64 8, ptr %23) #8
  call void @llvm.lifetime.end.p0(i64 1, ptr %22) #8
  call void @llvm.lifetime.end.p0(i64 64, ptr %21) #8
  call void @llvm.lifetime.end.p0(i64 64, ptr %20) #8
  call void @llvm.lifetime.end.p0(i64 4, ptr %19) #8
  call void @llvm.lifetime.end.p0(i64 4, ptr %18) #8
  %153 = load i32, ptr %9, align 4
  ret i32 %153
}