; Function Attrs: nounwind uwtable
define internal fastcc i32 @pkcs5_pbkdf2_hmac(ptr noundef %0, ptr noundef %1, i64 noundef %2, ptr noundef %3, i64 noundef %4, i32 noundef %5, i32 noundef %6, ptr noundef writeonly captures(none) %7) unnamed_addr #0 {
  %9 = alloca [64 x i8], align 16
  %10 = alloca [64 x i8], align 16
  %11 = alloca [4 x i8], align 4
  call void @llvm.lifetime.start.p0(i64 64, ptr nonnull %9) #8
  call void @llvm.lifetime.start.p0(i64 64, ptr nonnull %10) #8
  %12 = load ptr, ptr %0, align 8, !tbaa !16
  %13 = tail call zeroext i8 @mbedtls_md_get_size(ptr noundef %12) #8
  call void @llvm.lifetime.start.p0(i64 4, ptr nonnull %11) #8
  store i32 16777216, ptr %11, align 4
  %14 = tail call i32 @mbedtls_md_hmac_starts(ptr noundef nonnull %0, ptr noundef %1, i64 noundef %2) #8
  %.not = icmp eq i32 %14, 0
  br i1 %.not, label %.preheader64, label %74

.preheader64:                                     ; preds = %8
  %.not5273 = icmp eq i32 %6, 0
  br i1 %.not5273, label %.loopexit, label %.lr.ph76

.lr.ph76:                                         ; preds = %.preheader64
  %15 = zext i8 %13 to i64
  %16 = icmp ugt i32 %5, 1
  %.not.i67 = icmp ult i8 %13, 8
  %17 = zext i8 %13 to i32
  br i1 %16, label %.lr.ph76.split.us, label %.lr.ph76.split

.lr.ph76.split.us:                                ; preds = %.lr.ph76, %31
  %.075.us = phi ptr [ %54, %31 ], [ %7, %.lr.ph76 ]
  %.03774.us = phi i32 [ %53, %31 ], [ %6, %.lr.ph76 ]
  %18 = call i32 @mbedtls_md_hmac_update(ptr noundef nonnull %0, ptr noundef %3, i64 noundef %4) #8
  %.not53.us = icmp eq i32 %18, 0
  br i1 %.not53.us, label %19, label %.loopexit

19:                                               ; preds = %.lr.ph76.split.us
  %20 = call i32 @mbedtls_md_hmac_update(ptr noundef nonnull %0, ptr noundef nonnull %11, i64 noundef 4) #8
  %.not54.us = icmp eq i32 %20, 0
  br i1 %.not54.us, label %21, label %.loopexit

21:                                               ; preds = %19
  %22 = call i32 @mbedtls_md_hmac_finish(ptr noundef nonnull %0, ptr noundef nonnull %10) #8
  %.not55.us = icmp eq i32 %22, 0
  br i1 %.not55.us, label %23, label %.loopexit

23:                                               ; preds = %21
  %24 = call i32 @mbedtls_md_hmac_reset(ptr noundef nonnull %0) #8
  %.not56.us = icmp eq i32 %24, 0
  br i1 %.not56.us, label %.lr.ph72.us, label %.loopexit

.lr.ph72.us:                                      ; preds = %23
  call void @llvm.memcpy.p0.p0.i64(ptr nonnull align 16 %9, ptr nonnull align 16 %10, i64 %15, i1 false)
  br label %32

25:                                               ; preds = %26, %._crit_edge.us
  %indvars.iv97 = phi i64 [ %indvars.iv.next98, %26 ], [ 4, %._crit_edge.us ]
  %.not57.us = icmp eq i64 %indvars.iv97, 0
  br i1 %.not57.us, label %31, label %26

26:                                               ; preds = %25
  %indvars.iv.next98 = add nsw i64 %indvars.iv97, -1
  %27 = and i64 %indvars.iv.next98, 4294967295
  %28 = getelementptr inbounds nuw [4 x i8], ptr %11, i64 0, i64 %27
  %29 = load i8, ptr %28, align 1, !tbaa !19
  %30 = add i8 %29, 1
  store i8 %30, ptr %28, align 1, !tbaa !19
  %.not58.us = icmp eq i8 %30, 0
  br i1 %.not58.us, label %25, label %31, !llvm.loop !20

31:                                               ; preds = %26, %25
  %.not52.us = icmp eq i32 %53, 0
  br i1 %.not52.us, label %.loopexit, label %.lr.ph76.split.us, !llvm.loop !22

32:                                               ; preds = %.lr.ph72.us, %mbedtls_xor.exit.us
  %.03871.us = phi i32 [ 1, %.lr.ph72.us ], [ %43, %mbedtls_xor.exit.us ]
  %33 = call i32 @mbedtls_md_hmac_update(ptr noundef nonnull %0, ptr noundef nonnull %9, i64 noundef %15) #8
  %.not59.us = icmp eq i32 %33, 0
  br i1 %.not59.us, label %34, label %.loopexit

34:                                               ; preds = %32
  %35 = call i32 @mbedtls_md_hmac_finish(ptr noundef nonnull %0, ptr noundef nonnull %9) #8
  %.not60.us = icmp eq i32 %35, 0
  br i1 %.not60.us, label %36, label %.loopexit

36:                                               ; preds = %34
  %37 = call i32 @mbedtls_md_hmac_reset(ptr noundef nonnull %0) #8
  %.not61.us = icmp eq i32 %37, 0
  br i1 %.not61.us, label %.preheader63.us, label %.loopexit

.lr.ph.us:                                        ; preds = %.preheader63.us, %.lr.ph.us
  %38 = phi i64 [ %42, %.lr.ph.us ], [ 8, %.preheader63.us ]
  %.0.i68.us = phi i64 [ %38, %.lr.ph.us ], [ 0, %.preheader63.us ]
  %39 = getelementptr inbounds nuw i8, ptr %10, i64 %.0.i68.us
  %.0.copyload.i62.us = load i64, ptr %39, align 8
  %40 = getelementptr inbounds nuw i8, ptr %9, i64 %.0.i68.us
  %.0.copyload.i.us = load i64, ptr %40, align 8
  %41 = xor i64 %.0.copyload.i.us, %.0.copyload.i62.us
  store i64 %41, ptr %39, align 8
  %42 = add nuw nsw i64 %38, 8
  %.not.i.us = icmp samesign ugt i64 %42, %15
  br i1 %.not.i.us, label %.preheader.us, label %.lr.ph.us, !llvm.loop !23

mbedtls_xor.exit.us:                              ; preds = %.lr.ph70.us, %.preheader.us
  %43 = add nuw i32 %.03871.us, 1
  %exitcond96.not = icmp eq i32 %43, %5
  br i1 %exitcond96.not, label %._crit_edge.us, label %32, !llvm.loop !24

.lr.ph70.us:                                      ; preds = %.preheader.us, %.lr.ph70.us
  %.1.i69.us = phi i64 [ %49, %.lr.ph70.us ], [ %.0.i.lcssa.us, %.preheader.us ]
  %44 = getelementptr inbounds nuw i8, ptr %10, i64 %.1.i69.us
  %45 = load i8, ptr %44, align 1, !tbaa !19
  %46 = getelementptr inbounds nuw i8, ptr %9, i64 %.1.i69.us
  %47 = load i8, ptr %46, align 1, !tbaa !19
  %48 = xor i8 %47, %45
  store i8 %48, ptr %44, align 1, !tbaa !19
  %49 = add nuw nsw i64 %.1.i69.us, 1
  %exitcond.not = icmp eq i64 %49, %15
  br i1 %exitcond.not, label %mbedtls_xor.exit.us, label %.lr.ph70.us, !llvm.loop !25

.preheader.us:                                    ; preds = %.lr.ph.us, %.preheader63.us
  %.0.i.lcssa.us = phi i64 [ 0, %.preheader63.us ], [ %38, %.lr.ph.us ]
  %50 = icmp samesign ult i64 %.0.i.lcssa.us, %15
  br i1 %50, label %.lr.ph70.us, label %mbedtls_xor.exit.us

.preheader63.us:                                  ; preds = %36
  br i1 %.not.i67, label %.preheader.us, label %.lr.ph.us

._crit_edge.us:                                   ; preds = %mbedtls_xor.exit.us
  %51 = call i32 @llvm.umin.i32(i32 %.03774.us, i32 %17)
  %52 = zext nneg i32 %51 to i64
  call void @llvm.memcpy.p0.p0.i64(ptr align 1 %.075.us, ptr nonnull align 16 %10, i64 %52, i1 false)
  %53 = sub i32 %.03774.us, %51
  %54 = getelementptr inbounds nuw i8, ptr %.075.us, i64 %52
  br label %25

.lr.ph76.split:                                   ; preds = %.lr.ph76, %73
  %.075 = phi ptr [ %66, %73 ], [ %7, %.lr.ph76 ]
  %.03774 = phi i32 [ %65, %73 ], [ %6, %.lr.ph76 ]
  %55 = call i32 @mbedtls_md_hmac_update(ptr noundef nonnull %0, ptr noundef %3, i64 noundef %4) #8
  %.not53 = icmp eq i32 %55, 0
  br i1 %.not53, label %56, label %.loopexit

56:                                               ; preds = %.lr.ph76.split
  %57 = call i32 @mbedtls_md_hmac_update(ptr noundef nonnull %0, ptr noundef nonnull %11, i64 noundef 4) #8
  %.not54 = icmp eq i32 %57, 0
  br i1 %.not54, label %58, label %.loopexit

58:                                               ; preds = %56
  %59 = call i32 @mbedtls_md_hmac_finish(ptr noundef nonnull %0, ptr noundef nonnull %10) #8
  %.not55 = icmp eq i32 %59, 0
  br i1 %.not55, label %60, label %.loopexit

60:                                               ; preds = %58
  %61 = call i32 @mbedtls_md_hmac_reset(ptr noundef nonnull %0) #8
  %.not56 = icmp eq i32 %61, 0
  br i1 %.not56, label %62, label %.loopexit

62:                                               ; preds = %60
  call void @llvm.memcpy.p0.p0.i64(ptr nonnull align 16 %9, ptr nonnull align 16 %10, i64 %15, i1 false)
  %63 = call i32 @llvm.umin.i32(i32 %.03774, i32 %17)
  %64 = zext nneg i32 %63 to i64
  call void @llvm.memcpy.p0.p0.i64(ptr align 1 %.075, ptr nonnull align 16 %10, i64 %64, i1 false)
  %65 = sub i32 %.03774, %63
  %66 = getelementptr inbounds nuw i8, ptr %.075, i64 %64
  br label %67

67:                                               ; preds = %68, %62
  %indvars.iv = phi i64 [ %indvars.iv.next, %68 ], [ 4, %62 ]
  %.not57 = icmp eq i64 %indvars.iv, 0
  br i1 %.not57, label %73, label %68

68:                                               ; preds = %67
  %indvars.iv.next = add nsw i64 %indvars.iv, -1
  %69 = and i64 %indvars.iv.next, 4294967295
  %70 = getelementptr inbounds nuw [4 x i8], ptr %11, i64 0, i64 %69
  %71 = load i8, ptr %70, align 1, !tbaa !19
  %72 = add i8 %71, 1
  store i8 %72, ptr %70, align 1, !tbaa !19
  %.not58 = icmp eq i8 %72, 0
  br i1 %.not58, label %67, label %73, !llvm.loop !20

73:                                               ; preds = %68, %67
  %.not52 = icmp eq i32 %65, 0
  br i1 %.not52, label %.loopexit, label %.lr.ph76.split, !llvm.loop !22

.loopexit:                                        ; preds = %.lr.ph76.split, %56, %58, %60, %73, %.lr.ph76.split.us, %19, %21, %23, %31, %36, %34, %32, %.preheader64
  %.140 = phi i32 [ 0, %.preheader64 ], [ %37, %36 ], [ %35, %34 ], [ %33, %32 ], [ %18, %.lr.ph76.split.us ], [ %20, %19 ], [ %22, %21 ], [ %24, %23 ], [ 0, %31 ], [ %55, %.lr.ph76.split ], [ %57, %56 ], [ %59, %58 ], [ %61, %60 ], [ 0, %73 ]
  call void @mbedtls_platform_zeroize(ptr noundef nonnull %10, i64 noundef 64) #8
  call void @mbedtls_platform_zeroize(ptr noundef nonnull %9, i64 noundef 64) #8
  br label %74

74:                                               ; preds = %8, %.loopexit
  %.036 = phi i32 [ %.140, %.loopexit ], [ %14, %8 ]
  call void @llvm.lifetime.end.p0(i64 4, ptr nonnull %11) #8
  call void @llvm.lifetime.end.p0(i64 64, ptr nonnull %10) #8
  call void @llvm.lifetime.end.p0(i64 64, ptr nonnull %9) #8
  ret i32 %.036
}